target datalayout = "e-m:e-p270:32:32-p271:32:32-p272:64:64-i64:64-i128:128-f80:128-n8:16:32:64-S128"
target triple = "x86_64-pc-linux-gnu"

%union.SourceSpan = type { i64 }
%struct.Decl_ = type { ptr, ptr, %union.SourceSpan, i64, %union.anon, i32, %union.anon.0, i64, ptr, ptr, ptr, %union.anon.1 }
%union.anon = type { ptr }
%union.anon.0 = type { i16 }
%union.anon.1 = type { %struct.FuncDecl }
%struct.FuncDecl = type { i32, [4 x i8], %struct.Signature_, i32, i32, %union.anon.8 }
%struct.Signature_ = type <{ %struct.CalleeAttributes, i16, i8, i32, i32, [4 x i8], ptr }>
%struct.CalleeAttributes = type { i8 }
%union.anon.8 = type { %struct.anon.9 }
%struct.anon.9 = type { i16, %union.anon.10 }
%union.anon.10 = type { ptr }
%struct.VarDecl_ = type { i32, i32, %union.anon.14, %union.anon.15 }
%union.anon.14 = type { ptr }
%union.anon.15 = type { %struct.anon.16 }
%struct.anon.16 = type { ptr, %union.SourceSpan }
%struct.anon.17 = type { ptr, %union.anon.18 }
%union.anon.18 = type { ptr }

; Function Attrs: nounwind uwtable
define dso_local void @llvm_set_global_tls(ptr noundef %0) #0 {
  %2 = alloca ptr, align 8
  %3 = alloca i32, align 4
  %4 = alloca ptr, align 8
  store ptr %0, ptr %2, align 8
  %5 = load ptr, ptr %2, align 8
  %6 = getelementptr inbounds %struct.Decl_, ptr %5, i32 0, i32 11
  %7 = load i32, ptr %6, align 8
  %8 = lshr i32 %7, 18
  %9 = and i32 %8, 1
  %10 = trunc i32 %9 to i1
  br i1 %10, label %12, label %11

11:                                               ; preds = %1
  br label %42

12:                                               ; preds = %1
  store i32 1, ptr %3, align 4
  %13 = load ptr, ptr %2, align 8
  %14 = getelementptr inbounds %struct.Decl_, ptr %13, i32 0, i32 11
  %15 = load i32, ptr %14, align 8
  %16 = lshr i32 %15, 17
  %17 = and i32 %16, 1
  %18 = trunc i32 %17 to i1
  br i1 %18, label %23, label %19

19:                                               ; preds = %12
  %20 = load ptr, ptr %2, align 8
  %21 = call zeroext i1 @decl_is_local(ptr noundef %20)
  br i1 %21, label %22, label %23

22:                                               ; preds = %19
  store i32 2, ptr %3, align 4
  br label %23

23:                                               ; preds = %22, %19, %12
  %24 = load ptr, ptr %2, align 8
  %25 = getelementptr inbounds %struct.Decl_, ptr %24, i32 0, i32 4
  %26 = load ptr, ptr %25, align 8
  call void @LLVMSetThreadLocal(ptr noundef %26, i32 noundef 1)
  %27 = load ptr, ptr %2, align 8
  %28 = getelementptr inbounds %struct.Decl_, ptr %27, i32 0, i32 4
  %29 = load ptr, ptr %28, align 8
  %30 = load i32, ptr %3, align 4
  call void @LLVMSetThreadLocalMode(ptr noundef %29, i32 noundef %30)
  %31 = load ptr, ptr %2, align 8
  %32 = getelementptr inbounds %struct.Decl_, ptr %31, i32 0, i32 11
  %33 = getelementptr inbounds %struct.VarDecl_, ptr %32, i32 0, i32 3
  %34 = getelementptr inbounds %struct.anon.17, ptr %33, i32 0, i32 1
  %35 = load ptr, ptr %34, align 8
  store ptr %35, ptr %4, align 8
  %36 = load ptr, ptr %4, align 8
  %37 = icmp ne ptr %36, null
  br i1 %37, label %38, label %42

38:                                               ; preds = %23
  %39 = load ptr, ptr %4, align 8
  call void @LLVMSetThreadLocal(ptr noundef %39, i32 noundef 1)
  %40 = load ptr, ptr %4, align 8
  %41 = load i32, ptr %3, align 4
  call void @LLVMSetThreadLocalMode(ptr noundef %40, i32 noundef %41)
  br label %42

42:                                               ; preds = %38, %23, %11
  ret void
}