; Function Attrs: nounwind uwtable
define dso_local void @llvm_set_global_tls(ptr noundef %0) local_unnamed_addr #0 {
  %2 = getelementptr inbounds i8, ptr %0, i64 80
  %3 = load i32, ptr %2, align 8
  %4 = and i32 %3, 262144
  %.not = icmp eq i32 %4, 0
  br i1 %.not, label %16, label %5

5:                                                ; preds = %1
  %6 = and i32 %3, 131072
  %.not11 = icmp eq i32 %6, 0
  br i1 %.not11, label %7, label %9

7:                                                ; preds = %5
  %8 = tail call zeroext i1 @decl_is_local(ptr noundef nonnull %0) #10
  %spec.select = select i1 %8, i32 2, i32 1
  br label %9

9:                                                ; preds = %7, %5
  %.0 = phi i32 [ 1, %5 ], [ %spec.select, %7 ]
  %10 = getelementptr inbounds i8, ptr %0, i64 32
  %11 = load ptr, ptr %10, align 8
  tail call void @LLVMSetThreadLocal(ptr noundef %11, i32 noundef 1) #10
  %12 = load ptr, ptr %10, align 8
  tail call void @LLVMSetThreadLocalMode(ptr noundef %12, i32 noundef %.0) #10
  %13 = getelementptr inbounds i8, ptr %0, i64 104
  %14 = load ptr, ptr %13, align 8
  %.not12 = icmp eq ptr %14, null
  br i1 %.not12, label %16, label %15

15:                                               ; preds = %9
  tail call void @LLVMSetThreadLocal(ptr noundef nonnull %14, i32 noundef 1) #10
  tail call void @LLVMSetThreadLocalMode(ptr noundef nonnull %14, i32 noundef %.0) #10
  br label %16

16:                                               ; preds = %1, %15, %9
  ret void
}